target datalayout = "e-m:e-p270:32:32-p271:32:32-p272:64:64-i64:64-i128:128-f80:128-n8:16:32:64-S128"
target triple = "x86_64-pc-linux-gnu"

%struct.trig_mgr_info = type { i32, i16, i32, i16, ptr, ptr, i32, i32, i64, i32, i32, ptr, i8, ptr, ptr, i64 }
%struct.stat = type { i64, i64, i64, i32, i32, i32, i32, i64, i64, i64, i64, %struct.timespec, %struct.timespec, %struct.timespec, [3 x i64] }
%struct.timespec = type { i64, i64 }

@.str.22 = private unnamed_addr constant [29 x i8] c"trigger program %s not found\00", align 1
@.str.23 = private unnamed_addr constant [38 x i8] c"trigger program %s not a regular file\00", align 1
@.str.24 = private unnamed_addr constant [34 x i8] c"trigger program %s not executable\00", align 1

; Function Attrs: nounwind uwtable
define internal zeroext i1 @_validate_trigger(ptr noundef %0) #0 {
  %2 = alloca i1, align 1
  %3 = alloca ptr, align 8
  %4 = alloca %struct.stat, align 8
  %5 = alloca i32, align 4
  %6 = alloca i32, align 4
  %7 = alloca ptr, align 8
  %8 = alloca i32, align 4
  store ptr %0, ptr %3, align 8
  call void @llvm.lifetime.start.p0(i64 144, ptr %4) #10
  call void @llvm.lifetime.start.p0(i64 4, ptr %5) #10
  call void @llvm.lifetime.start.p0(i64 4, ptr %6) #10
  call void @llvm.lifetime.start.p0(i64 8, ptr %7) #10
  %9 = load ptr, ptr %3, align 8
  %10 = getelementptr inbounds nuw %struct.trig_mgr_info, ptr %9, i32 0, i32 11
  %11 = load ptr, ptr %10, align 8
  %12 = call ptr @xstrdup(ptr noundef %11)
  store ptr %12, ptr %7, align 8
  store i32 0, ptr %5, align 4
  br label %13

13:                                               ; preds = %41, %1
  %14 = load ptr, ptr %7, align 8
  %15 = load i32, ptr %5, align 4
  %16 = sext i32 %15 to i64
  %17 = getelementptr inbounds i8, ptr %14, i64 %16
  %18 = load i8, ptr %17, align 1
  %19 = icmp ne i8 %18, 0
  br i1 %19, label %20, label %44

20:                                               ; preds = %13
  %21 = call ptr @__ctype_b_loc() #11
  %22 = load ptr, ptr %21, align 8
  %23 = load ptr, ptr %7, align 8
  %24 = load i32, ptr %5, align 4
  %25 = sext i32 %24 to i64
  %26 = getelementptr inbounds i8, ptr %23, i64 %25
  %27 = load i8, ptr %26, align 1
  %28 = sext i8 %27 to i32
  %29 = sext i32 %28 to i64
  %30 = getelementptr inbounds i16, ptr %22, i64 %29
  %31 = load i16, ptr %30, align 2
  %32 = zext i16 %31 to i32
  %33 = and i32 %32, 8192
  %34 = icmp ne i32 %33, 0
  br i1 %34, label %35, label %40

35:                                               ; preds = %20
  %36 = load ptr, ptr %7, align 8
  %37 = load i32, ptr %5, align 4
  %38 = sext i32 %37 to i64
  %39 = getelementptr inbounds i8, ptr %36, i64 %38
  store i8 0, ptr %39, align 1
  br label %44

40:                                               ; preds = %20
  br label %41

41:                                               ; preds = %40
  %42 = load i32, ptr %5, align 4
  %43 = add nsw i32 %42, 1
  store i32 %43, ptr %5, align 4
  br label %13, !llvm.loop !18

44:                                               ; preds = %35, %13
  %45 = load ptr, ptr %7, align 8
  %46 = call i32 @stat(ptr noundef %45, ptr noundef %4) #10
  %47 = icmp ne i32 %46, 0
  br i1 %47, label %48, label %62

48:                                               ; preds = %44
  br label %49

49:                                               ; preds = %48
  br label %50

50:                                               ; preds = %49
  %51 = call i32 @get_log_level()
  %52 = icmp sge i32 %51, 3
  br i1 %52, label %53, label %57

53:                                               ; preds = %50
  %54 = load ptr, ptr %3, align 8
  %55 = getelementptr inbounds nuw %struct.trig_mgr_info, ptr %54, i32 0, i32 11
  %56 = load ptr, ptr %55, align 8
  call void (i32, ptr, ...) @log_var(i32 noundef 3, ptr noundef @.str.22, ptr noundef %56)
  br label %57

57:                                               ; preds = %53, %50
  br label %58

58:                                               ; preds = %57
  br label %59

59:                                               ; preds = %58
  br label %60

60:                                               ; preds = %59
  br label %61

61:                                               ; preds = %60
  call void @slurm_xfree(ptr noundef %7)
  store i1 false, ptr %2, align 1
  store i32 1, ptr %8, align 4
  br label %129

62:                                               ; preds = %44
  call void @slurm_xfree(ptr noundef %7)
  %63 = getelementptr inbounds nuw %struct.stat, ptr %4, i32 0, i32 3
  %64 = load i32, ptr %63, align 8
  %65 = and i32 %64, 61440
  %66 = icmp eq i32 %65, 32768
  br i1 %66, label %81, label %67

67:                                               ; preds = %62
  br label %68

68:                                               ; preds = %67
  br label %69

69:                                               ; preds = %68
  %70 = call i32 @get_log_level()
  %71 = icmp sge i32 %70, 3
  br i1 %71, label %72, label %76

72:                                               ; preds = %69
  %73 = load ptr, ptr %3, align 8
  %74 = getelementptr inbounds nuw %struct.trig_mgr_info, ptr %73, i32 0, i32 11
  %75 = load ptr, ptr %74, align 8
  call void (i32, ptr, ...) @log_var(i32 noundef 3, ptr noundef @.str.23, ptr noundef %75)
  br label %76

76:                                               ; preds = %72, %69
  br label %77

77:                                               ; preds = %76
  br label %78

78:                                               ; preds = %77
  br label %79

79:                                               ; preds = %78
  br label %80

80:                                               ; preds = %79
  store i1 false, ptr %2, align 1
  store i32 1, ptr %8, align 4
  br label %129

81:                                               ; preds = %62
  %82 = getelementptr inbounds nuw %struct.stat, ptr %4, i32 0, i32 4
  %83 = load i32, ptr %82, align 4
  %84 = load ptr, ptr %3, align 8
  %85 = getelementptr inbounds nuw %struct.trig_mgr_info, ptr %84, i32 0, i32 9
  %86 = load i32, ptr %85, align 8
  %87 = icmp eq i32 %83, %86
  br i1 %87, label %88, label %93

88:                                               ; preds = %81
  %89 = getelementptr inbounds nuw %struct.stat, ptr %4, i32 0, i32 3
  %90 = load i32, ptr %89, align 8
  %91 = lshr i32 %90, 6
  %92 = and i32 %91, 7
  store i32 %92, ptr %6, align 4
  br label %110

93:                                               ; preds = %81
  %94 = getelementptr inbounds nuw %struct.stat, ptr %4, i32 0, i32 5
  %95 = load i32, ptr %94, align 8
  %96 = load ptr, ptr %3, align 8
  %97 = getelementptr inbounds nuw %struct.trig_mgr_info, ptr %96, i32 0, i32 10
  %98 = load i32, ptr %97, align 4
  %99 = icmp eq i32 %95, %98
  br i1 %99, label %100, label %105

100:                                              ; preds = %93
  %101 = getelementptr inbounds nuw %struct.stat, ptr %4, i32 0, i32 3
  %102 = load i32, ptr %101, align 8
  %103 = lshr i32 %102, 3
  %104 = and i32 %103, 7
  store i32 %104, ptr %6, align 4
  br label %109

105:                                              ; preds = %93
  %106 = getelementptr inbounds nuw %struct.stat, ptr %4, i32 0, i32 3
  %107 = load i32, ptr %106, align 8
  %108 = and i32 %107, 7
  store i32 %108, ptr %6, align 4
  br label %109

109:                                              ; preds = %105, %100
  br label %110

110:                                              ; preds = %109, %88
  %111 = load i32, ptr %6, align 4
  %112 = and i32 %111, 1
  %113 = icmp ne i32 %112, 0
  br i1 %113, label %114, label %115

114:                                              ; preds = %110
  store i1 true, ptr %2, align 1
  store i32 1, ptr %8, align 4
  br label %129

115:                                              ; preds = %110
  br label %116

116:                                              ; preds = %115
  br label %117

117:                                              ; preds = %116
  %118 = call i32 @get_log_level()
  %119 = icmp sge i32 %118, 3
  br i1 %119, label %120, label %124

120:                                              ; preds = %117
  %121 = load ptr, ptr %3, align 8
  %122 = getelementptr inbounds nuw %struct.trig_mgr_info, ptr %121, i32 0, i32 11
  %123 = load ptr, ptr %122, align 8
  call void (i32, ptr, ...) @log_var(i32 noundef 3, ptr noundef @.str.24, ptr noundef %123)
  br label %124

124:                                              ; preds = %120, %117
  br label %125

125:                                              ; preds = %124
  br label %126

126:                                              ; preds = %125
  br label %127

127:                                              ; preds = %126
  br label %128

128:                                              ; preds = %127
  store i1 false, ptr %2, align 1
  store i32 1, ptr %8, align 4
  br label %129

129:                                              ; preds = %128, %114, %80, %61
  call void @llvm.lifetime.end.p0(i64 8, ptr %7) #10
  call void @llvm.lifetime.end.p0(i64 4, ptr %6) #10
  call void @llvm.lifetime.end.p0(i64 4, ptr %5) #10
  call void @llvm.lifetime.end.p0(i64 144, ptr %4) #10
  %130 = load i1, ptr %2, align 1
  ret i1 %130
}