; Function Attrs: nounwind uwtable
define internal fastcc noundef zeroext i1 @_validate_trigger(ptr noundef readonly captures(none) %0) unnamed_addr #0 {
  %2 = alloca %struct.stat, align 8
  %3 = alloca ptr, align 8
  call void @llvm.lifetime.start.p0(i64 144, ptr nonnull %2) #12
  call void @llvm.lifetime.start.p0(i64 8, ptr nonnull %3) #12
  %4 = getelementptr inbounds nuw i8, ptr %0, i64 56
  %5 = load ptr, ptr %4, align 8
  %6 = tail call ptr @xstrdup(ptr noundef %5) #12
  store ptr %6, ptr %3, align 8
  %7 = load i8, ptr %6, align 1
  %.not18 = icmp eq i8 %7, 0
  br i1 %.not18, label %.loopexit, label %.lr.ph

.lr.ph:                                           ; preds = %1
  %8 = tail call ptr @__ctype_b_loc() #13
  %9 = load ptr, ptr %8, align 8
  br label %13

10:                                               ; preds = %13
  %indvars.iv.next = add nuw nsw i64 %indvars.iv, 1
  %11 = getelementptr inbounds nuw i8, ptr %6, i64 %indvars.iv.next
  %12 = load i8, ptr %11, align 1
  %.not = icmp eq i8 %12, 0
  br i1 %.not, label %.loopexit, label %13, !llvm.loop !16

13:                                               ; preds = %.lr.ph, %10
  %indvars.iv = phi i64 [ 0, %.lr.ph ], [ %indvars.iv.next, %10 ]
  %14 = phi i8 [ %7, %.lr.ph ], [ %12, %10 ]
  %15 = sext i8 %14 to i64
  %16 = getelementptr inbounds i16, ptr %9, i64 %15
  %17 = load i16, ptr %16, align 2
  %18 = and i16 %17, 8192
  %.not14 = icmp eq i16 %18, 0
  br i1 %.not14, label %10, label %19

19:                                               ; preds = %13
  %20 = getelementptr inbounds nuw i8, ptr %6, i64 %indvars.iv
  store i8 0, ptr %20, align 1
  br label %.loopexit

.loopexit:                                        ; preds = %10, %1, %19
  %21 = call i32 @stat(ptr noundef nonnull %6, ptr noundef nonnull %2) #12
  %.not15 = icmp eq i32 %21, 0
  br i1 %.not15, label %28, label %22

22:                                               ; preds = %.loopexit
  %23 = tail call i32 @get_log_level() #12
  %24 = icmp sgt i32 %23, 2
  br i1 %24, label %25, label %27

25:                                               ; preds = %22
  %26 = load ptr, ptr %4, align 8
  tail call void (i32, ptr, ...) @log_var(i32 noundef 3, ptr noundef nonnull @.str.22, ptr noundef %26) #12
  br label %27

27:                                               ; preds = %25, %22
  call void @slurm_xfree(ptr noundef nonnull %3) #12
  br label %60

28:                                               ; preds = %.loopexit
  call void @slurm_xfree(ptr noundef nonnull %3) #12
  %29 = getelementptr inbounds nuw i8, ptr %2, i64 24
  %30 = load i32, ptr %29, align 8
  %31 = and i32 %30, 61440
  %32 = icmp eq i32 %31, 32768
  br i1 %32, label %38, label %33

33:                                               ; preds = %28
  %34 = call i32 @get_log_level() #12
  %35 = icmp sgt i32 %34, 2
  br i1 %35, label %36, label %60

36:                                               ; preds = %33
  %37 = load ptr, ptr %4, align 8
  call void (i32, ptr, ...) @log_var(i32 noundef 3, ptr noundef nonnull @.str.23, ptr noundef %37) #12
  br label %60

38:                                               ; preds = %28
  %39 = getelementptr inbounds nuw i8, ptr %2, i64 28
  %40 = load i32, ptr %39, align 4
  %41 = getelementptr inbounds nuw i8, ptr %0, i64 48
  %42 = load i32, ptr %41, align 8
  %43 = icmp eq i32 %40, %42
  br i1 %43, label %44, label %46

44:                                               ; preds = %38
  %45 = lshr i32 %30, 6
  br label %53

46:                                               ; preds = %38
  %47 = getelementptr inbounds nuw i8, ptr %2, i64 32
  %48 = load i32, ptr %47, align 8
  %49 = getelementptr inbounds nuw i8, ptr %0, i64 52
  %50 = load i32, ptr %49, align 4
  %51 = icmp eq i32 %48, %50
  %52 = lshr i32 %30, 3
  %spec.select = select i1 %51, i32 %52, i32 %30
  br label %53

53:                                               ; preds = %46, %44
  %.0.in = phi i32 [ %45, %44 ], [ %spec.select, %46 ]
  %54 = and i32 %.0.in, 1
  %.not16 = icmp eq i32 %54, 0
  br i1 %.not16, label %55, label %60

55:                                               ; preds = %53
  %56 = call i32 @get_log_level() #12
  %57 = icmp sgt i32 %56, 2
  br i1 %57, label %58, label %60

58:                                               ; preds = %55
  %59 = load ptr, ptr %4, align 8
  call void (i32, ptr, ...) @log_var(i32 noundef 3, ptr noundef nonnull @.str.24, ptr noundef %59) #12
  br label %60

60:                                               ; preds = %55, %58, %53, %33, %36, %27
  %.012 = phi i1 [ false, %27 ], [ false, %36 ], [ false, %33 ], [ true, %53 ], [ false, %58 ], [ false, %55 ]
  call void @llvm.lifetime.end.p0(i64 8, ptr nonnull %3) #12
  call void @llvm.lifetime.end.p0(i64 144, ptr nonnull %2) #12
  ret i1 %.012
}